; Function Attrs: mustprogress uwtable
define void @_ZN32pxrInternal_v0_24__pxrReserved__10TsKeyFrame8SetValueENS_7VtValueENS_6TsSideE(ptr noundef nonnull align 8 dereferenceable(72) %0, ptr noundef %1, i32 noundef %2) local_unnamed_addr #0 align 2 personality ptr @__gxx_personality_v0 {
  %4 = alloca %"class.pxrInternal_v0_24__pxrReserved__::VtValue", align 8
  %5 = alloca %"class.pxrInternal_v0_24__pxrReserved__::VtValue", align 8
  %6 = alloca %"class.pxrInternal_v0_24__pxrReserved__::VtValue", align 8
  %7 = alloca %"class.pxrInternal_v0_24__pxrReserved__::VtValue", align 8
  %8 = icmp eq i32 %2, 0
  br i1 %8, label %9, label %45

9:                                                ; preds = %3
  %10 = getelementptr inbounds nuw i8, ptr %6, i64 8
  store ptr null, ptr %10, align 8
  call void @_ZN32pxrInternal_v0_24__pxrReserved__7VtValue5_CopyERKS0_RS0_(ptr noundef nonnull align 8 dereferenceable(16) %1, ptr noundef nonnull align 8 dereferenceable(16) %6)
  call void @llvm.lifetime.start.p0(i64 16, ptr nonnull %5)
  %11 = getelementptr inbounds nuw i8, ptr %5, i64 8
  store ptr null, ptr %11, align 8
  invoke void @_ZN32pxrInternal_v0_24__pxrReserved__7VtValue5_CopyERKS0_RS0_(ptr noundef nonnull align 8 dereferenceable(16) %6, ptr noundef nonnull align 8 dereferenceable(16) %5)
          to label %.noexc unwind label %43

.noexc:                                           ; preds = %9
  %12 = load ptr, ptr %0, align 8
  %13 = getelementptr inbounds i8, ptr %12, i64 136
  %14 = load ptr, ptr %13, align 8
  invoke void %14(ptr noundef nonnull align 8 dereferenceable(16) %0, ptr noundef nonnull %5)
          to label %15 unwind label %28

15:                                               ; preds = %.noexc
  %16 = load ptr, ptr %11, align 8
  %17 = ptrtoint ptr %16 to i64
  %.not.i.i.i = icmp eq ptr %16, null
  %18 = and i64 %17, 3
  %19 = icmp eq i64 %18, 3
  %or.cond.i.i.i = or i1 %.not.i.i.i, %19
  br i1 %or.cond.i.i.i, label %30, label %20

20:                                               ; preds = %15
  %21 = and i64 %17, -8
  %22 = inttoptr i64 %21 to ptr
  %23 = getelementptr inbounds nuw i8, ptr %22, i64 32
  %24 = load ptr, ptr %23, align 8
  invoke void %24(ptr noundef nonnull align 8 dereferenceable(8) %5)
          to label %30 unwind label %25

25:                                               ; preds = %20
  %26 = landingpad { ptr, i32 }
          catch ptr null
  %27 = extractvalue { ptr, i32 } %26, 0
  call void @__clang_call_terminate(ptr %27) #19
  unreachable

28:                                               ; preds = %.noexc
  %29 = landingpad { ptr, i32 }
          cleanup
  call void @_ZN32pxrInternal_v0_24__pxrReserved__7VtValueD2Ev(ptr noundef nonnull align 8 dereferenceable(16) %5) #20
  br label %.body

30:                                               ; preds = %20, %15
  call void @llvm.lifetime.end.p0(i64 16, ptr nonnull %5)
  %31 = load ptr, ptr %10, align 8
  %32 = ptrtoint ptr %31 to i64
  %.not.i.i = icmp eq ptr %31, null
  %33 = and i64 %32, 3
  %34 = icmp eq i64 %33, 3
  %or.cond.i.i = or i1 %.not.i.i, %34
  br i1 %or.cond.i.i, label %_ZN32pxrInternal_v0_24__pxrReserved__7VtValueD2Ev.exit, label %35

35:                                               ; preds = %30
  %36 = and i64 %32, -8
  %37 = inttoptr i64 %36 to ptr
  %38 = getelementptr inbounds nuw i8, ptr %37, i64 32
  %39 = load ptr, ptr %38, align 8
  invoke void %39(ptr noundef nonnull align 8 dereferenceable(8) %6)
          to label %_ZN32pxrInternal_v0_24__pxrReserved__7VtValueD2Ev.exit unwind label %40

40:                                               ; preds = %35
  %41 = landingpad { ptr, i32 }
          catch ptr null
  %42 = extractvalue { ptr, i32 } %41, 0
  call void @__clang_call_terminate(ptr %42) #19
  unreachable

43:                                               ; preds = %9
  %44 = landingpad { ptr, i32 }
          cleanup
  br label %.body

45:                                               ; preds = %3
  %46 = getelementptr inbounds nuw i8, ptr %7, i64 8
  store ptr null, ptr %46, align 8
  call void @_ZN32pxrInternal_v0_24__pxrReserved__7VtValue5_CopyERKS0_RS0_(ptr noundef nonnull align 8 dereferenceable(16) %1, ptr noundef nonnull align 8 dereferenceable(16) %7)
  call void @llvm.lifetime.start.p0(i64 16, ptr nonnull %4)
  %47 = getelementptr inbounds nuw i8, ptr %4, i64 8
  store ptr null, ptr %47, align 8
  invoke void @_ZN32pxrInternal_v0_24__pxrReserved__7VtValue5_CopyERKS0_RS0_(ptr noundef nonnull align 8 dereferenceable(16) %7, ptr noundef nonnull align 8 dereferenceable(16) %4)
          to label %.noexc7 unwind label %79

.noexc7:                                          ; preds = %45
  %48 = load ptr, ptr %0, align 8
  %49 = getelementptr inbounds i8, ptr %48, i64 88
  %50 = load ptr, ptr %49, align 8
  invoke void %50(ptr noundef nonnull align 8 dereferenceable(16) %0, ptr noundef nonnull %4)
          to label %51 unwind label %64

51:                                               ; preds = %.noexc7
  %52 = load ptr, ptr %47, align 8
  %53 = ptrtoint ptr %52 to i64
  %.not.i.i.i5 = icmp eq ptr %52, null
  %54 = and i64 %53, 3
  %55 = icmp eq i64 %54, 3
  %or.cond.i.i.i6 = or i1 %.not.i.i.i5, %55
  br i1 %or.cond.i.i.i6, label %66, label %56

56:                                               ; preds = %51
  %57 = and i64 %53, -8
  %58 = inttoptr i64 %57 to ptr
  %59 = getelementptr inbounds nuw i8, ptr %58, i64 32
  %60 = load ptr, ptr %59, align 8
  invoke void %60(ptr noundef nonnull align 8 dereferenceable(8) %4)
          to label %66 unwind label %61

61:                                               ; preds = %56
  %62 = landingpad { ptr, i32 }
          catch ptr null
  %63 = extractvalue { ptr, i32 } %62, 0
  call void @__clang_call_terminate(ptr %63) #19
  unreachable

64:                                               ; preds = %.noexc7
  %65 = landingpad { ptr, i32 }
          cleanup
  call void @_ZN32pxrInternal_v0_24__pxrReserved__7VtValueD2Ev(ptr noundef nonnull align 8 dereferenceable(16) %4) #20
  br label %.body

66:                                               ; preds = %56, %51
  call void @llvm.lifetime.end.p0(i64 16, ptr nonnull %4)
  %67 = load ptr, ptr %46, align 8
  %68 = ptrtoint ptr %67 to i64
  %.not.i.i10 = icmp eq ptr %67, null
  %69 = and i64 %68, 3
  %70 = icmp eq i64 %69, 3
  %or.cond.i.i11 = or i1 %.not.i.i10, %70
  br i1 %or.cond.i.i11, label %_ZN32pxrInternal_v0_24__pxrReserved__7VtValueD2Ev.exit, label %71

71:                                               ; preds = %66
  %72 = and i64 %68, -8
  %73 = inttoptr i64 %72 to ptr
  %74 = getelementptr inbounds nuw i8, ptr %73, i64 32
  %75 = load ptr, ptr %74, align 8
  invoke void %75(ptr noundef nonnull align 8 dereferenceable(8) %7)
          to label %_ZN32pxrInternal_v0_24__pxrReserved__7VtValueD2Ev.exit unwind label %76

76:                                               ; preds = %71
  %77 = landingpad { ptr, i32 }
          catch ptr null
  %78 = extractvalue { ptr, i32 } %77, 0
  call void @__clang_call_terminate(ptr %78) #19
  unreachable

79:                                               ; preds = %45
  %80 = landingpad { ptr, i32 }
          cleanup
  br label %.body

_ZN32pxrInternal_v0_24__pxrReserved__7VtValueD2Ev.exit: ; preds = %71, %66, %35, %30
  ret void

.body:                                            ; preds = %79, %64, %43, %28
  %.sink = phi ptr [ %6, %28 ], [ %6, %43 ], [ %7, %64 ], [ %7, %79 ]
  %.pn = phi { ptr, i32 } [ %29, %28 ], [ %44, %43 ], [ %65, %64 ], [ %80, %79 ]
  call void @_ZN32pxrInternal_v0_24__pxrReserved__7VtValueD2Ev(ptr noundef nonnull align 8 dereferenceable(16) %.sink) #20
  resume { ptr, i32 } %.pn
}